;
; Definition file of libvma.dll
; Automatic generated by gendef
; written by Kai Tietz 2008
;
LIBRARY "libvma.dll"
EXPORTS
_Z8snprintfPcyPKcz
_ZN13VmaJsonWriter10BeginArrayEb
_ZN13VmaJsonWriter10BeginValueEb
_ZN13VmaJsonWriter11BeginObjectEb
_ZN13VmaJsonWriter11BeginStringEPKc
_ZN13VmaJsonWriter11WriteIndentEb
_ZN13VmaJsonWriter11WriteNumberEj
_ZN13VmaJsonWriter11WriteNumberEy
_ZN13VmaJsonWriter11WriteStringEPKc
_ZN13VmaJsonWriter14ContinueStringEPKc
_ZN13VmaJsonWriter14ContinueStringEj
_ZN13VmaJsonWriter14ContinueStringEy
_ZN13VmaJsonWriter22ContinueString_PointerEPKv
_ZN13VmaJsonWriter6INDENTE DATA
_ZN13VmaJsonWriter8EndArrayEv
_ZN13VmaJsonWriter9EndObjectEv
_ZN13VmaJsonWriter9EndStringEPKc
_ZN13VmaJsonWriter9WriteBoolEb
_ZN13VmaJsonWriter9WriteNullEv
_ZN13VmaJsonWriterC1EPK21VkAllocationCallbacksR16VmaStringBuilder
_ZN13VmaJsonWriterC2EPK21VkAllocationCallbacksR16VmaStringBuilder
_ZN13VmaJsonWriterD1Ev
_ZN13VmaJsonWriterD2Ev
_ZN14VmaAllocator_T10CreatePoolEPK17VmaPoolCreateInfoPP9VmaPool_T
_ZN14VmaAllocator_T10FreeMemoryEyPKP15VmaAllocation_T
_ZN14VmaAllocator_T11DestroyPoolEP9VmaPool_T
_ZN14VmaAllocator_T14AllocateMemoryERK20VkMemoryRequirementsbbP10VkBuffer_TP9VkImage_TjRK23VmaAllocationCreateInfo20VmaSuballocationTypeyPP15VmaAllocation_T
_ZN14VmaAllocator_T14FillAllocationEP15VmaAllocation_Th
_ZN14VmaAllocator_T14GetHeapBudgetsEP9VmaBudgetjj
_ZN14VmaAllocator_T15BindImageMemoryEP15VmaAllocation_TyP9VkImage_TPKv
_ZN14VmaAllocator_T15BindVulkanImageEP16VkDeviceMemory_TyP9VkImage_TPKv
_ZN14VmaAllocator_T15CheckCorruptionEj
_ZN14VmaAllocator_T16BindBufferMemoryEP15VmaAllocation_TyP10VkBuffer_TPKv
_ZN14VmaAllocator_T16BindVulkanBufferEP16VkDeviceMemory_TyP10VkBuffer_TPKv
_ZN14VmaAllocator_T16FreeVulkanMemoryEjyP16VkDeviceMemory_T
_ZN14VmaAllocator_T16PrintDetailedMapER13VmaJsonWriter
_ZN14VmaAllocator_T17CalcMemTypeParamsER23VmaAllocationCreateInfojyy
_ZN14VmaAllocator_T17GetAllocationInfoEP15VmaAllocation_TP17VmaAllocationInfo
_ZN14VmaAllocator_T17GetPoolStatisticsEP9VmaPool_TP13VmaStatistics
_ZN14VmaAllocator_T18UpdateVulkanBudgetEv
_ZN14VmaAllocator_T19CalculateStatisticsEP18VmaTotalStatistics
_ZN14VmaAllocator_T19CheckPoolCorruptionEP9VmaPool_T
_ZN14VmaAllocator_T19FreeDedicatedMemoryEP15VmaAllocation_T
_ZN14VmaAllocator_T20AllocateMemoryOfTypeEP9VmaPool_TyybP10VkBuffer_TP9VkImage_TjRK23VmaAllocationCreateInfoj20VmaSuballocationTypeR26VmaDedicatedAllocationListR14VmaBlockVectoryPP15VmaAllocation_T
_ZN14VmaAllocator_T20AllocateVulkanMemoryEPK20VkMemoryAllocateInfoPP16VkDeviceMemory_T
_ZN14VmaAllocator_T20CalcAllocationParamsER23VmaAllocationCreateInfobb
_ZN14VmaAllocator_T20SetCurrentFrameIndexEj
_ZN14VmaAllocator_T21ImportVulkanFunctionsEPK18VmaVulkanFunctions
_ZN14VmaAllocator_T22CalcPreferredBlockSizeEj
_ZN14VmaAllocator_T23AllocateDedicatedMemoryEP9VmaPool_Ty20VmaSuballocationTypeR26VmaDedicatedAllocationListjbbbbPvfP10VkBuffer_TP9VkImage_TjyPP15VmaAllocation_TPKv
_ZN14VmaAllocator_T23CalculatePoolStatisticsEP9VmaPool_TP21VmaDetailedStatistics
_ZN14VmaAllocator_T23ValidateVulkanFunctionsEv
_ZN14VmaAllocator_T27AllocateDedicatedMemoryPageEP9VmaPool_Ty20VmaSuballocationTypejRK20VkMemoryAllocateInfobbbPvPP15VmaAllocation_T
_ZN14VmaAllocator_T27FlushOrInvalidateAllocationEP15VmaAllocation_Tyy19VMA_CACHE_OPERATION
_ZN14VmaAllocator_T28FlushOrInvalidateAllocationsEjPKP15VmaAllocation_TPKyS5_19VMA_CACHE_OPERATION
_ZN14VmaAllocator_T28ImportVulkanFunctions_CustomEPK18VmaVulkanFunctions
_ZN14VmaAllocator_T29ImportVulkanFunctions_DynamicEv
_ZN14VmaAllocator_T35GetGpuDefragmentationMemoryTypeBitsEv
_ZN14VmaAllocator_T3MapEP15VmaAllocation_TPPv
_ZN14VmaAllocator_T4InitEPK22VmaAllocatorCreateInfo
_ZN14VmaAllocator_T5UnmapEP15VmaAllocation_T
_ZN14VmaAllocator_TC1EPK22VmaAllocatorCreateInfo
_ZN14VmaAllocator_TC2EPK22VmaAllocatorCreateInfo
_ZN14VmaAllocator_TD1Ev
_ZN14VmaAllocator_TD2Ev
_ZN14VmaBlockVector11CreateBlockEyPy
_ZN14VmaBlockVector12AllocatePageEyyRK23VmaAllocationCreateInfo20VmaSuballocationTypePP15VmaAllocation_T
_ZN14VmaBlockVector13AddStatisticsER13VmaStatistics
_ZN14VmaBlockVector13HasEmptyBlockEv
_ZN14VmaBlockVector14SortByFreeSizeEv
_ZN14VmaBlockVector15CheckCorruptionEv
_ZN14VmaBlockVector15CreateMinBlocksEv
_ZN14VmaBlockVector16PrintDetailedMapER13VmaJsonWriter
_ZN14VmaBlockVector17AllocateFromBlockEP20VmaDeviceMemoryBlockyyjPv20VmaSuballocationTypejPP15VmaAllocation_T
_ZN14VmaBlockVector21AddDetailedStatisticsER21VmaDetailedStatistics
_ZN14VmaBlockVector23CommitAllocationRequestER20VmaAllocationRequestP20VmaDeviceMemoryBlockyjPv20VmaSuballocationTypePP15VmaAllocation_T
_ZN14VmaBlockVector23IncrementallySortBlocksEv
_ZN14VmaBlockVector4FreeEP15VmaAllocation_T
_ZN14VmaBlockVector6RemoveEP20VmaDeviceMemoryBlock
_ZN14VmaBlockVector7IsEmptyEv
_ZN14VmaBlockVector8AllocateEyyRK23VmaAllocationCreateInfo20VmaSuballocationTypeyPP15VmaAllocation_T
_ZN14VmaBlockVectorC1EP14VmaAllocator_TP9VmaPool_TjyyyybjfyPv
_ZN14VmaBlockVectorC2EP14VmaAllocator_TP9VmaPool_TjyyyybjfyPv
_ZN14VmaBlockVectorD1Ev
_ZN14VmaBlockVectorD2Ev
_ZN14VmaSmallVectorI19VkMappedMemoryRange15VmaStlAllocatorIS0_ELy16EE9push_backERKS0_
_ZN15VmaAllocation_T13BlockAllocMapEv
_ZN15VmaAllocation_T15BlockAllocUnmapEv
_ZN15VmaAllocation_T17DedicatedAllocMapEP14VmaAllocator_TPPv
_ZN15VmaAllocation_T19DedicatedAllocUnmapEP14VmaAllocator_T
_ZN15VmaAllocation_T19InitBlockAllocationEP20VmaDeviceMemoryBlockP16VmaAllocHandle_Tyyj20VmaSuballocationTypeb
_ZN15VmaAllocation_T19SwapBlockAllocationEP14VmaAllocator_TPS_
_ZN15VmaAllocation_T20InitBufferImageUsageEj
_ZN15VmaAllocation_T23InitDedicatedAllocationEP9VmaPool_TjP16VkDeviceMemory_T20VmaSuballocationTypePvy
_ZN15VmaAllocation_T7SetNameEP14VmaAllocator_TPKc
_ZN15VmaAllocation_T8FreeNameEP14VmaAllocator_T
_ZN15VmaAllocation_TC1Eb
_ZN15VmaAllocation_TC2Eb
_ZN15VmaAllocation_TD1Ev
_ZN15VmaAllocation_TD2Ev
_ZN16VmaBlockMetadata4InitEy
_ZN16VmaBlockMetadataC1EPK21VkAllocationCallbacksyb
_ZN16VmaBlockMetadataC2EPK21VkAllocationCallbacksyb
_ZN16VmaPoolAllocatorIN21VmaBlockMetadata_TLSF5BlockEE5AllocIJEEEPS1_DpOT_
_ZN16VmaStringBuilder10AddPointerEPKv
_ZN16VmaStringBuilder3AddEPKc
_ZN16VmaStringBuilder9AddNumberEj
_ZN16VmaStringBuilder9AddNumberEy
_ZN17VmaVirtualBlock_T17GetAllocationInfoEP22VmaVirtualAllocation_TR24VmaVirtualAllocationInfo
_ZN17VmaVirtualBlock_T8AllocateERK30VmaVirtualAllocationCreateInfoRP22VmaVirtualAllocation_TPy
_ZN17VmaVirtualBlock_TC1ERK25VmaVirtualBlockCreateInfo
_ZN17VmaVirtualBlock_TC2ERK25VmaVirtualBlockCreateInfo
_ZN17VmaVirtualBlock_TD1Ev
_ZN17VmaVirtualBlock_TD2Ev
_ZN20VmaCurrentBudgetData13AddAllocationEjy
_ZN20VmaCurrentBudgetData16RemoveAllocationEjy
_ZN20VmaCurrentBudgetDataC1Ev
_ZN20VmaCurrentBudgetDataC2Ev
_ZN20VmaDeviceMemoryBlock15BindImageMemoryEP14VmaAllocator_TP15VmaAllocation_TyP9VkImage_TPKv
_ZN20VmaDeviceMemoryBlock15CheckCorruptionEP14VmaAllocator_T
_ZN20VmaDeviceMemoryBlock16BindBufferMemoryEP14VmaAllocator_TP15VmaAllocation_TyP10VkBuffer_TPKv
_ZN20VmaDeviceMemoryBlock30WriteMagicValueAfterAllocationEP14VmaAllocator_Tyy
_ZN20VmaDeviceMemoryBlock33ValidateMagicValueAfterAllocationEP14VmaAllocator_Tyy
_ZN20VmaDeviceMemoryBlock3MapEP14VmaAllocator_TjPPv
_ZN20VmaDeviceMemoryBlock4InitEP14VmaAllocator_TP9VmaPool_TjP16VkDeviceMemory_Tyjjy
_ZN20VmaDeviceMemoryBlock5UnmapEP14VmaAllocator_Tj
_ZN20VmaDeviceMemoryBlock7DestroyEP14VmaAllocator_T
_ZN20VmaDeviceMemoryBlock8PostFreeEP14VmaAllocator_T
_ZN20VmaDeviceMemoryBlock9PostAllocEP14VmaAllocator_T
_ZN20VmaDeviceMemoryBlockC1EP14VmaAllocator_T
_ZN20VmaDeviceMemoryBlockC2EP14VmaAllocator_T
_ZN20VmaDeviceMemoryBlockD1Ev
_ZN20VmaDeviceMemoryBlockD2Ev
_ZN21VmaBlockMetadata_TLSF10CheckBlockERNS_5BlockEjyy20VmaSuballocationTypeP20VmaAllocationRequest
_ZN21VmaBlockMetadata_TLSF10MergeBlockEPNS_5BlockES1_
_ZN21VmaBlockMetadata_TLSF15CheckCorruptionEPKv
_ZN21VmaBlockMetadata_TLSF15InsertFreeBlockEPNS_5BlockE
_ZN21VmaBlockMetadata_TLSF15RemoveFreeBlockEPNS_5BlockE
_ZN21VmaBlockMetadata_TLSF17GetAllocationInfoEP16VmaAllocHandle_TR24VmaVirtualAllocationInfo
_ZN21VmaBlockMetadata_TLSF21SetAllocationUserDataEP16VmaAllocHandle_TPv
_ZN21VmaBlockMetadata_TLSF23CreateAllocationRequestEyyb20VmaSuballocationTypejP20VmaAllocationRequest
_ZN21VmaBlockMetadata_TLSF4FreeEP16VmaAllocHandle_T
_ZN21VmaBlockMetadata_TLSF4InitEy
_ZN21VmaBlockMetadata_TLSF5AllocERK20VmaAllocationRequest20VmaSuballocationTypePv
_ZN21VmaBlockMetadata_TLSF5ClearEv
_ZN21VmaBlockMetadata_TLSFC1EPK21VkAllocationCallbacksyb
_ZN21VmaBlockMetadata_TLSFC2EPK21VkAllocationCallbacksyb
_ZN21VmaBlockMetadata_TLSFD0Ev
_ZN21VmaBlockMetadata_TLSFD1Ev
_ZN21VmaBlockMetadata_TLSFD2Ev
_ZN23VmaBlockMetadata_Linear15CheckCorruptionEPKv
_ZN23VmaBlockMetadata_Linear16CleanupAfterFreeEv
_ZN23VmaBlockMetadata_Linear17GetAllocationInfoEP16VmaAllocHandle_TR24VmaVirtualAllocationInfo
_ZN23VmaBlockMetadata_Linear21SetAllocationUserDataEP16VmaAllocHandle_TPv
_ZN23VmaBlockMetadata_Linear23CreateAllocationRequestEyyb20VmaSuballocationTypejP20VmaAllocationRequest
_ZN23VmaBlockMetadata_Linear36CreateAllocationRequest_LowerAddressEyy20VmaSuballocationTypejP20VmaAllocationRequest
_ZN23VmaBlockMetadata_Linear36CreateAllocationRequest_UpperAddressEyy20VmaSuballocationTypejP20VmaAllocationRequest
_ZN23VmaBlockMetadata_Linear4FreeEP16VmaAllocHandle_T
_ZN23VmaBlockMetadata_Linear4InitEy
_ZN23VmaBlockMetadata_Linear5AllocERK20VmaAllocationRequest20VmaSuballocationTypePv
_ZN23VmaBlockMetadata_Linear5ClearEv
_ZN23VmaBlockMetadata_LinearC1EPK21VkAllocationCallbacksyb
_ZN23VmaBlockMetadata_LinearC2EPK21VkAllocationCallbacksyb
_ZN23VmaBlockMetadata_LinearD0Ev
_ZN23VmaBlockMetadata_LinearD1Ev
_ZN26VmaDedicatedAllocationList10UnregisterEP15VmaAllocation_T
_ZN26VmaDedicatedAllocationList13AddStatisticsER13VmaStatistics
_ZN26VmaDedicatedAllocationList16BuildStatsStringER13VmaJsonWriter
_ZN26VmaDedicatedAllocationList21AddDetailedStatisticsER21VmaDetailedStatistics
_ZN26VmaDedicatedAllocationList7IsEmptyEv
_ZN26VmaDedicatedAllocationList8RegisterEP15VmaAllocation_T
_ZN26VmaDedicatedAllocationList8ValidateEv
_ZN26VmaDedicatedAllocationListD1Ev
_ZN26VmaDedicatedAllocationListD2Ev
_ZN27VmaDefragmentationContext_T11GetMoveDataEP16VmaAllocHandle_TP16VmaBlockMetadata
_ZN27VmaDefragmentationContext_T13CheckCountersEy
_ZN27VmaDefragmentationContext_T17AllocInOtherBlockEyyRNS_18MoveAllocationDataER14VmaBlockVector
_ZN27VmaDefragmentationContext_T17DefragmentPassEndER30VmaDefragmentationPassMoveInfo
_ZN27VmaDefragmentationContext_T17IncrementCountersEy
_ZN27VmaDefragmentationContext_T18ReallocWithinBlockER14VmaBlockVectorP20VmaDeviceMemoryBlock
_ZN27VmaDefragmentationContext_T19DefragmentPassBeginER30VmaDefragmentationPassMoveInfo
_ZN27VmaDefragmentationContext_T20MoveDataToFreeBlocksE20VmaSuballocationTypeR14VmaBlockVectoryRbS3_S3_
_ZN27VmaDefragmentationContext_T22ComputeDefragmentationER14VmaBlockVectory
_ZN27VmaDefragmentationContext_T22UpdateVectorStatisticsER14VmaBlockVectorRNS_13StateBalancedE
_ZN27VmaDefragmentationContext_T27ComputeDefragmentation_FastER14VmaBlockVector
_ZN27VmaDefragmentationContext_T27ComputeDefragmentation_FullER14VmaBlockVector
_ZN27VmaDefragmentationContext_T31ComputeDefragmentation_BalancedER14VmaBlockVectoryb
_ZN27VmaDefragmentationContext_T32ComputeDefragmentation_ExtensiveER14VmaBlockVectory
_ZN27VmaDefragmentationContext_TC1EP14VmaAllocator_TRK22VmaDefragmentationInfo
_ZN27VmaDefragmentationContext_TC2EP14VmaAllocator_TRK22VmaDefragmentationInfo
_ZN27VmaDefragmentationContext_TD1Ev
_ZN27VmaDefragmentationContext_TD2Ev
_ZN28VmaAllocationObjectAllocator4FreeEP15VmaAllocation_T
_ZN30VmaBlockBufferImageGranularity10AllocPagesEhyy
_ZN30VmaBlockBufferImageGranularity4InitEPK21VkAllocationCallbacksy
_ZN30VmaBlockBufferImageGranularity5ClearEv
_ZN30VmaBlockBufferImageGranularity7DestroyEPK21VkAllocationCallbacks
_ZN30VmaBlockBufferImageGranularity9AllocPageERNS_10RegionInfoEh
_ZN30VmaBlockBufferImageGranularity9FreePagesEyy
_ZN30VmaBlockBufferImageGranularityC1Ey
_ZN30VmaBlockBufferImageGranularityC2Ey
_ZN30VmaBlockBufferImageGranularityD1Ev
_ZN30VmaBlockBufferImageGranularityD2Ev
_ZN9VmaPool_T7SetNameEPKc
_ZN9VmaPool_TC1EP14VmaAllocator_TRK17VmaPoolCreateInfoy
_ZN9VmaPool_TC2EP14VmaAllocator_TRK17VmaPoolCreateInfoy
_ZN9VmaPool_TD1Ev
_ZN9VmaPool_TD2Ev
_ZN9VmaVectorI16VmaSuballocation15VmaStlAllocatorIS0_EE6resizeEy
_ZN9VmaVectorI19VkMappedMemoryRange15VmaStlAllocatorIS0_EE6resizeEy
_ZN9VmaVectorI22VmaDefragmentationMove15VmaStlAllocatorIS0_EE9push_backERKS0_
_ZN9VmaVectorIN13VmaJsonWriter9StackItemE15VmaStlAllocatorIS1_EE6resizeEy
_ZN9VmaVectorIN16VmaPoolAllocatorI15VmaAllocation_TE9ItemBlockE15VmaStlAllocatorIS3_EE6resizeEy
_ZN9VmaVectorIN16VmaPoolAllocatorIN21VmaBlockMetadata_TLSF5BlockEE9ItemBlockE15VmaStlAllocatorIS4_EE6resizeEy
_ZN9VmaVectorIP20VmaDeviceMemoryBlock15VmaStlAllocatorIS1_EE6resizeEy
_ZN9VmaVectorIc15VmaStlAllocatorIcEE6resizeEy
_ZNK14VmaAllocator_T19FindMemoryTypeIndexEjPK23VmaAllocationCreateInfojPj
_ZNK14VmaAllocator_T25GetFlushOrInvalidateRangeEP15VmaAllocation_TyyR19VkMappedMemoryRange
_ZNK14VmaAllocator_T26GetImageMemoryRequirementsEP9VkImage_TR20VkMemoryRequirementsRbS4_
_ZNK14VmaAllocator_T27GetBufferMemoryRequirementsEP10VkBuffer_TR20VkMemoryRequirementsRbS4_
_ZNK14VmaAllocator_T29CalculateGlobalMemoryTypeBitsEv
_ZNK14VmaAllocator_T41CalculateGpuDefragmentationMemoryTypeBitsEv
_ZNK14VmaBlockVector16CalcMaxBlockSizeEv
_ZNK14VmaBlockVector28IsCorruptionDetectionEnabledEv
_ZNK15VmaAllocation_T13GetMappedDataEv
_ZNK15VmaAllocation_T13GetParentPoolEv
_ZNK15VmaAllocation_T14GetAllocHandleEv
_ZNK15VmaAllocation_T15PrintParametersER13VmaJsonWriter
_ZNK15VmaAllocation_T9GetMemoryEv
_ZNK15VmaAllocation_T9GetOffsetEv
_ZNK16VmaBlockMetadata18DebugLogAllocationEyyPv
_ZNK16VmaBlockMetadata20PrintDetailedMap_EndER13VmaJsonWriter
_ZNK16VmaBlockMetadata22PrintDetailedMap_BeginER13VmaJsonWriteryyy
_ZNK16VmaBlockMetadata27PrintDetailedMap_AllocationER13VmaJsonWriteryyPv
_ZNK16VmaBlockMetadata28PrintDetailedMap_UnusedRangeER13VmaJsonWriteryy
_ZNK17VmaVirtualBlock_T13GetStatisticsER13VmaStatistics
_ZNK17VmaVirtualBlock_T16BuildStatsStringEbR16VmaStringBuilder
_ZNK17VmaVirtualBlock_T22GetAllocationCallbacksEv
_ZNK17VmaVirtualBlock_T27CalculateDetailedStatisticsER21VmaDetailedStatistics
_ZNK20VmaDeviceMemoryBlock8ValidateEv
_ZNK21VmaBlockMetadata_TLSF12GetListIndexEht
_ZNK21VmaBlockMetadata_TLSF12GetListIndexEy
_ZNK21VmaBlockMetadata_TLSF13AddStatisticsER13VmaStatistics
_ZNK21VmaBlockMetadata_TLSF13FindFreeBlockEyRj
_ZNK21VmaBlockMetadata_TLSF14GetSumFreeSizeEv
_ZNK21VmaBlockMetadata_TLSF16PrintDetailedMapER13VmaJsonWriter
_ZNK21VmaBlockMetadata_TLSF17GetNextAllocationEP16VmaAllocHandle_T
_ZNK21VmaBlockMetadata_TLSF17SizeToMemoryClassEy
_ZNK21VmaBlockMetadata_TLSF17SizeToSecondIndexEyh
_ZNK21VmaBlockMetadata_TLSF18GetAllocationCountEv
_ZNK21VmaBlockMetadata_TLSF19GetAllocationOffsetEP16VmaAllocHandle_T
_ZNK21VmaBlockMetadata_TLSF19GetFreeRegionsCountEv
_ZNK21VmaBlockMetadata_TLSF21AddDetailedStatisticsER21VmaDetailedStatistics
_ZNK21VmaBlockMetadata_TLSF21GetAllocationUserDataEP16VmaAllocHandle_T
_ZNK21VmaBlockMetadata_TLSF21GetNextFreeRegionSizeEP16VmaAllocHandle_T
_ZNK21VmaBlockMetadata_TLSF22DebugLogAllAllocationsEv
_ZNK21VmaBlockMetadata_TLSF22GetAllocationListBeginEv
_ZNK21VmaBlockMetadata_TLSF7IsEmptyEv
_ZNK21VmaBlockMetadata_TLSF8ValidateEv
_ZNK23VmaBlockMetadata_Linear13AddStatisticsER13VmaStatistics
_ZNK23VmaBlockMetadata_Linear14GetSumFreeSizeEv
_ZNK23VmaBlockMetadata_Linear16PrintDetailedMapER13VmaJsonWriter
_ZNK23VmaBlockMetadata_Linear16ShouldCompact1stEv
_ZNK23VmaBlockMetadata_Linear17FindSuballocationEy
_ZNK23VmaBlockMetadata_Linear17GetNextAllocationEP16VmaAllocHandle_T
_ZNK23VmaBlockMetadata_Linear18GetAllocationCountEv
_ZNK23VmaBlockMetadata_Linear19GetAllocationOffsetEP16VmaAllocHandle_T
_ZNK23VmaBlockMetadata_Linear19GetFreeRegionsCountEv
_ZNK23VmaBlockMetadata_Linear21AddDetailedStatisticsER21VmaDetailedStatistics
_ZNK23VmaBlockMetadata_Linear21GetAllocationUserDataEP16VmaAllocHandle_T
_ZNK23VmaBlockMetadata_Linear21GetNextFreeRegionSizeEP16VmaAllocHandle_T
_ZNK23VmaBlockMetadata_Linear22DebugLogAllAllocationsEv
_ZNK23VmaBlockMetadata_Linear22GetAllocationListBeginEv
_ZNK23VmaBlockMetadata_Linear7IsEmptyEv
_ZNK23VmaBlockMetadata_Linear8ValidateEv
_ZNK30VmaBlockBufferImageGranularity15StartValidationEPK21VkAllocationCallbacksb
_ZNK30VmaBlockBufferImageGranularity16FinishValidationERNS_17ValidationContextE
_ZNK30VmaBlockBufferImageGranularity17OffsetToPageIndexEy
_ZNK30VmaBlockBufferImageGranularity19RoundupAllocRequestE20VmaSuballocationTypeRyS1_
_ZNK30VmaBlockBufferImageGranularity23CheckConflictAndAlignUpERyyyy20VmaSuballocationType
_ZNK30VmaBlockBufferImageGranularity8ValidateERNS_17ValidationContextEyy
_ZNSt5mutex4lockEv
_ZTI16VmaBlockMetadata DATA
_ZTI21VmaBlockMetadata_TLSF DATA
_ZTI23VmaBlockMetadata_Linear DATA
_ZTS16VmaBlockMetadata DATA
_ZTS21VmaBlockMetadata_TLSF DATA
_ZTS23VmaBlockMetadata_Linear DATA
_ZTV16VmaBlockMetadata DATA
_ZTV21VmaBlockMetadata_TLSF DATA
_ZTV23VmaBlockMetadata_Linear DATA
vmaAllocateMemory
vmaAllocateMemoryForBuffer
vmaAllocateMemoryForImage
vmaAllocateMemoryPages
vmaBeginDefragmentation
vmaBeginDefragmentationPass
vmaBindBufferMemory
vmaBindBufferMemory2
vmaBindImageMemory
vmaBindImageMemory2
vmaBuildStatsString
vmaBuildVirtualBlockStatsString
vmaCalculatePoolStatistics
vmaCalculateStatistics
vmaCalculateVirtualBlockStatistics
vmaCheckCorruption
vmaCheckPoolCorruption
vmaClearVirtualBlock
vmaCreateAliasingBuffer
vmaCreateAliasingBuffer2
vmaCreateAliasingImage
vmaCreateAliasingImage2
vmaCreateAllocator
vmaCreateBuffer
vmaCreateBufferWithAlignment
vmaCreateImage
vmaCreatePool
vmaCreateVirtualBlock
vmaDestroyAllocator
vmaDestroyBuffer
vmaDestroyImage
vmaDestroyPool
vmaDestroyVirtualBlock
vmaEndDefragmentation
vmaEndDefragmentationPass
vmaFindMemoryTypeIndex
vmaFindMemoryTypeIndexForBufferInfo
vmaFindMemoryTypeIndexForImageInfo
vmaFlushAllocation
vmaFlushAllocations
vmaFreeMemory
vmaFreeMemoryPages
vmaFreeStatsString
vmaFreeVirtualBlockStatsString
vmaGetAllocationInfo
vmaGetAllocationMemoryProperties
vmaGetAllocatorInfo
vmaGetHeapBudgets
vmaGetMemoryProperties
vmaGetMemoryTypeProperties
vmaGetPhysicalDeviceProperties
vmaGetPoolName
vmaGetPoolStatistics
vmaGetVirtualAllocationInfo
vmaGetVirtualBlockStatistics
vmaInvalidateAllocation
vmaInvalidateAllocations
vmaIsVirtualBlockEmpty
vmaMapMemory
vmaSetAllocationName
vmaSetAllocationUserData
vmaSetCurrentFrameIndex
vmaSetPoolName
vmaSetVirtualAllocationUserData
vmaUnmapMemory
vmaVirtualAllocate
vmaVirtualFree
